target datalayout = "e-m:e-p270:32:32-p271:32:32-p272:64:64-i64:64-i128:128-f80:128-n8:16:32:64-S128"
target triple = "x86_64-unknown-linux-gnu"

%struct.Range = type { i64, i64 }

@.str.4 = private unnamed_addr constant [57 x i8] c"range->lob <= range->upb || range->lob == range->upb + 1\00", align 1
@.str.5 = private unnamed_addr constant [99 x i8] c"/home/dtcxzyw/WorkSpace/Projects/compilers/llvm-opt-benchmark/bench/qemu/qemu/include/qemu/range.h\00", align 1
@__PRETTY_FUNCTION__.range_invariant = private unnamed_addr constant [36 x i8] c"void range_invariant(const Range *)\00", align 1

; Function Attrs: nounwind sspstrong uwtable
define internal void @range_invariant(ptr noundef %range) #0 {
entry:
  %range.addr = alloca ptr, align 8
  store ptr %range, ptr %range.addr, align 8
  %0 = load ptr, ptr %range.addr, align 8
  %lob = getelementptr inbounds %struct.Range, ptr %0, i32 0, i32 0
  %1 = load i64, ptr %lob, align 8
  %2 = load ptr, ptr %range.addr, align 8
  %upb = getelementptr inbounds %struct.Range, ptr %2, i32 0, i32 1
  %3 = load i64, ptr %upb, align 8
  %cmp = icmp ule i64 %1, %3
  br i1 %cmp, label %if.then, label %lor.lhs.false

lor.lhs.false:                                    ; preds = %entry
  %4 = load ptr, ptr %range.addr, align 8
  %lob1 = getelementptr inbounds %struct.Range, ptr %4, i32 0, i32 0
  %5 = load i64, ptr %lob1, align 8
  %6 = load ptr, ptr %range.addr, align 8
  %upb2 = getelementptr inbounds %struct.Range, ptr %6, i32 0, i32 1
  %7 = load i64, ptr %upb2, align 8
  %add = add i64 %7, 1
  %cmp3 = icmp eq i64 %5, %add
  br i1 %cmp3, label %if.then, label %if.else

if.then:                                          ; preds = %lor.lhs.false, %entry
  br label %if.end

if.else:                                          ; preds = %lor.lhs.false
  call void @__assert_fail(ptr noundef @.str.4, ptr noundef @.str.5, i32 noundef 41, ptr noundef @__PRETTY_FUNCTION__.range_invariant) #5
  unreachable

if.end:                                           ; preds = %if.then
  ret void
}

; Function Attrs: nounwind sspstrong uwtable
define internal zeroext i1 @range_is_empty(ptr noundef %range) #0 {
entry:
  %range.addr = alloca ptr, align 8
  store ptr %range, ptr %range.addr, align 8
  %0 = load ptr, ptr %range.addr, align 8
  call void @range_invariant(ptr noundef %0)
  %1 = load ptr, ptr %range.addr, align 8
  %lob = getelementptr inbounds %struct.Range, ptr %1, i32 0, i32 0
  %2 = load i64, ptr %lob, align 8
  %3 = load ptr, ptr %range.addr, align 8
  %upb = getelementptr inbounds %struct.Range, ptr %3, i32 0, i32 1
  %4 = load i64, ptr %upb, align 8
  %cmp = icmp ugt i64 %2, %4
  ret i1 %cmp
}

; Function Attrs: nounwind sspstrong uwtable
define internal void @range_extend(ptr noundef %range, ptr noundef %extend_by) #0 {
entry:
  %range.addr = alloca ptr, align 8
  %extend_by.addr = alloca ptr, align 8
  store ptr %range, ptr %range.addr, align 8
  store ptr %extend_by, ptr %extend_by.addr, align 8
  %0 = load ptr, ptr %extend_by.addr, align 8
  %call = call zeroext i1 @range_is_empty(ptr noundef %0)
  br i1 %call, label %if.then, label %if.end

if.then:                                          ; preds = %entry
  br label %return

if.end:                                           ; preds = %entry
  %1 = load ptr, ptr %range.addr, align 8
  %call1 = call zeroext i1 @range_is_empty(ptr noundef %1)
  br i1 %call1, label %if.then2, label %if.end3

if.then2:                                         ; preds = %if.end
  %2 = load ptr, ptr %range.addr, align 8
  %3 = load ptr, ptr %extend_by.addr, align 8
  call void @llvm.memcpy.p0.p0.i64(ptr align 8 %2, ptr align 8 %3, i64 16, i1 false)
  br label %return

if.end3:                                          ; preds = %if.end
  %4 = load ptr, ptr %range.addr, align 8
  %lob = getelementptr inbounds %struct.Range, ptr %4, i32 0, i32 0
  %5 = load i64, ptr %lob, align 8
  %6 = load ptr, ptr %extend_by.addr, align 8
  %lob4 = getelementptr inbounds %struct.Range, ptr %6, i32 0, i32 0
  %7 = load i64, ptr %lob4, align 8
  %cmp = icmp ugt i64 %5, %7
  br i1 %cmp, label %if.then5, label %if.end8

if.then5:                                         ; preds = %if.end3
  %8 = load ptr, ptr %extend_by.addr, align 8
  %lob6 = getelementptr inbounds %struct.Range, ptr %8, i32 0, i32 0
  %9 = load i64, ptr %lob6, align 8
  %10 = load ptr, ptr %range.addr, align 8
  %lob7 = getelementptr inbounds %struct.Range, ptr %10, i32 0, i32 0
  store i64 %9, ptr %lob7, align 8
  br label %if.end8

if.end8:                                          ; preds = %if.then5, %if.end3
  %11 = load ptr, ptr %range.addr, align 8
  %upb = getelementptr inbounds %struct.Range, ptr %11, i32 0, i32 1
  %12 = load i64, ptr %upb, align 8
  %13 = load ptr, ptr %extend_by.addr, align 8
  %upb9 = getelementptr inbounds %struct.Range, ptr %13, i32 0, i32 1
  %14 = load i64, ptr %upb9, align 8
  %cmp10 = icmp ult i64 %12, %14
  br i1 %cmp10, label %if.then11, label %if.end14

if.then11:                                        ; preds = %if.end8
  %15 = load ptr, ptr %extend_by.addr, align 8
  %upb12 = getelementptr inbounds %struct.Range, ptr %15, i32 0, i32 1
  %16 = load i64, ptr %upb12, align 8
  %17 = load ptr, ptr %range.addr, align 8
  %upb13 = getelementptr inbounds %struct.Range, ptr %17, i32 0, i32 1
  store i64 %16, ptr %upb13, align 8
  br label %if.end14

if.end14:                                         ; preds = %if.then11, %if.end8
  %18 = load ptr, ptr %range.addr, align 8
  call void @range_invariant(ptr noundef %18)
  br label %return

return:                                           ; preds = %if.end14, %if.then2, %if.then
  ret void
}