; Function Attrs: nounwind sspstrong uwtable
define internal fastcc void @range_extend(ptr noundef captures(none) %range, ptr noundef readonly captures(none) %extend_by) unnamed_addr #0 {
entry:
  %extend_by.val = load i64, ptr %extend_by, align 8
  %0 = getelementptr i8, ptr %extend_by, i64 8
  %extend_by.val16 = load i64, ptr %0, align 8
  %cmp.not.i.i = icmp ule i64 %extend_by.val, %extend_by.val16
  %add.i.i = add i64 %extend_by.val16, 1
  %cmp3.i.i = icmp eq i64 %extend_by.val, %add.i.i
  %or.cond.i.i = or i1 %cmp.not.i.i, %cmp3.i.i
  br i1 %or.cond.i.i, label %range_is_empty.exit, label %if.else.i.i

if.else.i.i:                                      ; preds = %entry
  tail call void @__assert_fail(ptr noundef nonnull @.str.4, ptr noundef nonnull @.str.5, i32 noundef 41, ptr noundef nonnull @__PRETTY_FUNCTION__.range_invariant) #6
  unreachable

range_is_empty.exit:                              ; preds = %entry
  %cmp.i = icmp ugt i64 %extend_by.val, %extend_by.val16
  br i1 %cmp.i, label %return, label %if.end

if.end:                                           ; preds = %range_is_empty.exit
  %range.val14 = load i64, ptr %range, align 8
  %1 = getelementptr i8, ptr %range, i64 8
  %range.val15 = load i64, ptr %1, align 8
  %cmp.not.i.i17 = icmp ule i64 %range.val14, %range.val15
  %add.i.i18 = add i64 %range.val15, 1
  %cmp3.i.i19 = icmp eq i64 %range.val14, %add.i.i18
  %or.cond.i.i20 = or i1 %cmp.not.i.i17, %cmp3.i.i19
  br i1 %or.cond.i.i20, label %range_is_empty.exit23, label %if.else.i.i21

if.else.i.i21:                                    ; preds = %if.end
  tail call void @__assert_fail(ptr noundef nonnull @.str.4, ptr noundef nonnull @.str.5, i32 noundef 41, ptr noundef nonnull @__PRETTY_FUNCTION__.range_invariant) #6
  unreachable

range_is_empty.exit23:                            ; preds = %if.end
  %cmp.i22 = icmp ugt i64 %range.val14, %range.val15
  br i1 %cmp.i22, label %if.then2, label %if.end3

if.then2:                                         ; preds = %range_is_empty.exit23
  tail call void @llvm.memcpy.p0.p0.i64(ptr noundef nonnull align 8 dereferenceable(16) %range, ptr noundef nonnull align 8 dereferenceable(16) %extend_by, i64 16, i1 false)
  br label %return

if.end3:                                          ; preds = %range_is_empty.exit23
  %cmp = icmp ugt i64 %range.val14, %extend_by.val
  br i1 %cmp, label %if.then5, label %if.end8

if.then5:                                         ; preds = %if.end3
  store i64 %extend_by.val, ptr %range, align 8
  %.pre = load i64, ptr %0, align 8
  br label %if.end8

if.end8:                                          ; preds = %if.then5, %if.end3
  %range.val = phi i64 [ %extend_by.val, %if.then5 ], [ %range.val14, %if.end3 ]
  %2 = phi i64 [ %.pre, %if.then5 ], [ %extend_by.val16, %if.end3 ]
  %cmp10 = icmp ult i64 %range.val15, %2
  br i1 %cmp10, label %if.then11, label %if.end14

if.then11:                                        ; preds = %if.end8
  store i64 %2, ptr %1, align 8
  %.pre26 = add i64 %2, 1
  br label %if.end14

if.end14:                                         ; preds = %if.then11, %if.end8
  %add.i.pre-phi = phi i64 [ %.pre26, %if.then11 ], [ %add.i.i18, %if.end8 ]
  %range.val13 = phi i64 [ %2, %if.then11 ], [ %range.val15, %if.end8 ]
  %cmp.not.i = icmp ule i64 %range.val, %range.val13
  %cmp3.i = icmp eq i64 %range.val, %add.i.pre-phi
  %or.cond.i = or i1 %cmp.not.i, %cmp3.i
  br i1 %or.cond.i, label %return, label %if.else.i

if.else.i:                                        ; preds = %if.end14
  tail call void @__assert_fail(ptr noundef nonnull @.str.4, ptr noundef nonnull @.str.5, i32 noundef 41, ptr noundef nonnull @__PRETTY_FUNCTION__.range_invariant) #6
  unreachable

return:                                           ; preds = %if.end14, %range_is_empty.exit, %if.then2
  ret void
}